target datalayout = "e-m:e-p270:32:32-p271:32:32-p272:64:64-i64:64-i128:128-f80:128-n8:16:32:64-S128"
target triple = "x86_64-pc-linux-gnu"

%struct.mbedtls_error_pair_t = type { i16, i16 }
%struct.mbedtls_lms_parameters_t = type { [16 x i8], i32, i32 }
%struct.psa_hash_operation_s = type { i32, %union.psa_driver_hash_context_t }
%union.psa_driver_hash_context_t = type { %struct.mbedtls_psa_hash_operation_t }
%struct.mbedtls_psa_hash_operation_t = type { i32, %union.anon }
%union.anon = type { %struct.mbedtls_sha512_context }
%struct.mbedtls_sha512_context = type { [2 x i64], [8 x i64], [128 x i8], i32 }

@D_LEAF_CONSTANT_BYTES = internal constant [2 x i8] c"\82\82", align 1
@psa_to_lms_errors = external constant [3 x %struct.mbedtls_error_pair_t], align 2

; Function Attrs: nounwind uwtable
define internal i32 @local_err_translation(i32 noundef %0) #0 {
  %2 = alloca i32, align 4
  store i32 %0, ptr %2, align 4, !tbaa !11
  %3 = load i32, ptr %2, align 4, !tbaa !11
  %4 = call i32 @psa_status_to_mbedtls(i32 noundef %3, ptr noundef @psa_to_lms_errors, i64 noundef 3, ptr noundef @psa_generic_status_to_mbedtls)
  ret i32 %4
}

; Function Attrs: alwaysinline nounwind uwtable
define internal void @mbedtls_put_unaligned_uint32(ptr noundef %0, i32 noundef %1) #4 {
  %3 = alloca ptr, align 8
  %4 = alloca i32, align 4
  store ptr %0, ptr %3, align 8, !tbaa !3
  store i32 %1, ptr %4, align 4, !tbaa !11
  %5 = load ptr, ptr %3, align 8, !tbaa !3
  call void @llvm.memcpy.p0.p0.i64(ptr align 1 %5, ptr align 4 %4, i64 4, i1 false)
  ret void
}

; Function Attrs: inlinehint nounwind uwtable
define internal void @psa_hash_operation_init(ptr dead_on_unwind noalias writable sret(%struct.psa_hash_operation_s) align 8 %0) #8 {
  call void @llvm.memset.p0.i64(ptr align 8 %0, i8 0, i64 232, i1 false)
  ret void
}

; Function Attrs: nounwind uwtable
define internal i32 @create_merkle_leaf_value(ptr noundef %0, ptr noundef %1, i32 noundef %2, ptr noundef %3) #0 {
  %5 = alloca ptr, align 8
  %6 = alloca ptr, align 8
  %7 = alloca i32, align 4
  %8 = alloca ptr, align 8
  %9 = alloca %struct.psa_hash_operation_s, align 8
  %10 = alloca i32, align 4
  %11 = alloca i64, align 8
  %12 = alloca [4 x i8], align 1
  %13 = alloca %struct.psa_hash_operation_s, align 8
  store ptr %0, ptr %5, align 8, !tbaa !3
  store ptr %1, ptr %6, align 8, !tbaa !7
  store i32 %2, ptr %7, align 4, !tbaa !11
  store ptr %3, ptr %8, align 8, !tbaa !7
  call void @llvm.lifetime.start.p0(i64 232, ptr %9) #9
  call void @llvm.lifetime.start.p0(i64 4, ptr %10) #9
  store i32 -151, ptr %10, align 4, !tbaa !11
  call void @llvm.lifetime.start.p0(i64 8, ptr %11) #9
  call void @llvm.lifetime.start.p0(i64 4, ptr %12) #9
  call void @llvm.lifetime.start.p0(i64 232, ptr %13) #9
  call void @psa_hash_operation_init(ptr dead_on_unwind writable sret(%struct.psa_hash_operation_s) align 8 %13)
  call void @llvm.memcpy.p0.p0.i64(ptr align 8 %9, ptr align 8 %13, i64 232, i1 false), !tbaa.struct !24
  call void @llvm.lifetime.end.p0(i64 232, ptr %13) #9
  %14 = call i32 @psa_hash_setup(ptr noundef %9, i32 noundef 33554441)
  store i32 %14, ptr %10, align 4, !tbaa !11
  %15 = load i32, ptr %10, align 4, !tbaa !11
  %16 = icmp ne i32 %15, 0
  br i1 %16, label %17, label %18

17:                                               ; preds = %4
  br label %66

18:                                               ; preds = %4
  %19 = load ptr, ptr %5, align 8, !tbaa !3
  %20 = getelementptr inbounds nuw %struct.mbedtls_lms_parameters_t, ptr %19, i32 0, i32 0
  %21 = getelementptr inbounds [16 x i8], ptr %20, i64 0, i64 0
  %22 = call i32 @psa_hash_update(ptr noundef %9, ptr noundef %21, i64 noundef 16)
  store i32 %22, ptr %10, align 4, !tbaa !11
  %23 = load i32, ptr %10, align 4, !tbaa !11
  %24 = icmp ne i32 %23, 0
  br i1 %24, label %25, label %26

25:                                               ; preds = %18
  br label %66

26:                                               ; preds = %18
  %27 = getelementptr inbounds [4 x i8], ptr %12, i64 0, i64 0
  %28 = getelementptr inbounds i8, ptr %27, i64 0
  %29 = load i32, ptr %7, align 4, !tbaa !11
  %30 = call i32 @llvm.bswap.i32(i32 %29)
  call void @mbedtls_put_unaligned_uint32(ptr noundef %28, i32 noundef %30)
  %31 = getelementptr inbounds [4 x i8], ptr %12, i64 0, i64 0
  %32 = call i32 @psa_hash_update(ptr noundef %9, ptr noundef %31, i64 noundef 4)
  store i32 %32, ptr %10, align 4, !tbaa !11
  %33 = load i32, ptr %10, align 4, !tbaa !11
  %34 = icmp ne i32 %33, 0
  br i1 %34, label %35, label %36

35:                                               ; preds = %26
  br label %66

36:                                               ; preds = %26
  %37 = call i32 @psa_hash_update(ptr noundef %9, ptr noundef @D_LEAF_CONSTANT_BYTES, i64 noundef 2)
  store i32 %37, ptr %10, align 4, !tbaa !11
  %38 = load i32, ptr %10, align 4, !tbaa !11
  %39 = icmp ne i32 %38, 0
  br i1 %39, label %40, label %41

40:                                               ; preds = %36
  br label %66

41:                                               ; preds = %36
  %42 = load ptr, ptr %6, align 8, !tbaa !7
  %43 = load ptr, ptr %5, align 8, !tbaa !3
  %44 = getelementptr inbounds nuw %struct.mbedtls_lms_parameters_t, ptr %43, i32 0, i32 1
  %45 = load i32, ptr %44, align 4, !tbaa !26
  %46 = icmp eq i32 %45, 4
  %47 = select i1 %46, i32 32, i32 0
  %48 = zext i32 %47 to i64
  %49 = call i32 @psa_hash_update(ptr noundef %9, ptr noundef %42, i64 noundef %48)
  store i32 %49, ptr %10, align 4, !tbaa !11
  %50 = load i32, ptr %10, align 4, !tbaa !11
  %51 = icmp ne i32 %50, 0
  br i1 %51, label %52, label %53

52:                                               ; preds = %41
  br label %66

53:                                               ; preds = %41
  %54 = load ptr, ptr %8, align 8, !tbaa !7
  %55 = load ptr, ptr %5, align 8, !tbaa !3
  %56 = getelementptr inbounds nuw %struct.mbedtls_lms_parameters_t, ptr %55, i32 0, i32 2
  %57 = load i32, ptr %56, align 4, !tbaa !27
  %58 = icmp eq i32 %57, 6
  %59 = select i1 %58, i32 32, i32 0
  %60 = sext i32 %59 to i64
  %61 = call i32 @psa_hash_finish(ptr noundef %9, ptr noundef %54, i64 noundef %60, ptr noundef %11)
  store i32 %61, ptr %10, align 4, !tbaa !11
  %62 = load i32, ptr %10, align 4, !tbaa !11
  %63 = icmp ne i32 %62, 0
  br i1 %63, label %64, label %65

64:                                               ; preds = %53
  br label %66

65:                                               ; preds = %53
  br label %66

66:                                               ; preds = %65, %64, %52, %40, %35, %25, %17
  %67 = call i32 @psa_hash_abort(ptr noundef %9)
  %68 = load i32, ptr %10, align 4, !tbaa !11
  %69 = call i32 @local_err_translation(i32 noundef %68)
  call void @llvm.lifetime.end.p0(i64 4, ptr %12) #9
  call void @llvm.lifetime.end.p0(i64 8, ptr %11) #9
  call void @llvm.lifetime.end.p0(i64 4, ptr %10) #9
  call void @llvm.lifetime.end.p0(i64 232, ptr %9) #9
  ret i32 %69
}