; Function Attrs: nounwind uwtable
define internal fastcc void @create_merkle_leaf_value(ptr noundef %0, ptr noundef nonnull %1, i32 noundef %2, ptr noundef nonnull %3) unnamed_addr #2 {
  %5 = alloca %struct.psa_hash_operation_s, align 8
  %6 = alloca i64, align 8
  %7 = alloca [4 x i8], align 4
  call void @llvm.lifetime.start.p0(i64 232, ptr nonnull %5) #9
  call void @llvm.lifetime.start.p0(i64 8, ptr nonnull %6) #9
  call void @llvm.lifetime.start.p0(i64 4, ptr nonnull %7) #9
  call void @llvm.memset.p0.i64(ptr noundef nonnull align 8 dereferenceable(232) %5, i8 0, i64 232, i1 false)
  %8 = call i32 @psa_hash_setup(ptr noundef nonnull %5, i32 noundef 33554441) #9
  %.not = icmp eq i32 %8, 0
  br i1 %.not, label %9, label %28

9:                                                ; preds = %4
  %10 = call i32 @psa_hash_update(ptr noundef nonnull %5, ptr noundef %0, i64 noundef 16) #9
  %.not16 = icmp eq i32 %10, 0
  br i1 %.not16, label %11, label %28

11:                                               ; preds = %9
  %12 = call i32 @llvm.bswap.i32(i32 %2)
  store i32 %12, ptr %7, align 4
  %13 = call i32 @psa_hash_update(ptr noundef nonnull %5, ptr noundef nonnull %7, i64 noundef 4) #9
  %.not17 = icmp eq i32 %13, 0
  br i1 %.not17, label %14, label %28

14:                                               ; preds = %11
  %15 = call i32 @psa_hash_update(ptr noundef nonnull %5, ptr noundef nonnull @D_LEAF_CONSTANT_BYTES, i64 noundef 2) #9
  %.not18 = icmp eq i32 %15, 0
  br i1 %.not18, label %16, label %28

16:                                               ; preds = %14
  %17 = getelementptr inbounds nuw i8, ptr %0, i64 16
  %18 = load i32, ptr %17, align 4, !tbaa !18
  %19 = icmp eq i32 %18, 4
  %20 = select i1 %19, i64 32, i64 0
  %21 = call i32 @psa_hash_update(ptr noundef nonnull %5, ptr noundef nonnull %1, i64 noundef %20) #9
  %.not19 = icmp eq i32 %21, 0
  br i1 %.not19, label %22, label %28

22:                                               ; preds = %16
  %23 = getelementptr inbounds nuw i8, ptr %0, i64 20
  %24 = load i32, ptr %23, align 4, !tbaa !15
  %25 = icmp eq i32 %24, 6
  %26 = select i1 %25, i64 32, i64 0
  %27 = call i32 @psa_hash_finish(ptr noundef nonnull %5, ptr noundef nonnull %3, i64 noundef %26, ptr noundef nonnull %6) #9
  br label %28

28:                                               ; preds = %22, %16, %14, %11, %9, %4
  %.0 = phi i32 [ %8, %4 ], [ %10, %9 ], [ %13, %11 ], [ %15, %14 ], [ %21, %16 ], [ %27, %22 ]
  %29 = call i32 @psa_hash_abort(ptr noundef nonnull %5) #9
  %30 = call i32 @psa_status_to_mbedtls(i32 noundef %.0, ptr noundef nonnull @psa_to_lms_errors, i64 noundef 3, ptr noundef nonnull @psa_generic_status_to_mbedtls) #9
  call void @llvm.lifetime.end.p0(i64 4, ptr nonnull %7) #9
  call void @llvm.lifetime.end.p0(i64 8, ptr nonnull %6) #9
  call void @llvm.lifetime.end.p0(i64 232, ptr nonnull %5) #9
  ret void
}